; Function Attrs: mustprogress nofree norecurse nosync nounwind willreturn memory(read, inaccessiblemem: none) uwtable
define hidden noundef zeroext i1 @_ZNK8seq_util10is_char2bvEPK4expr(ptr noundef nonnull readonly align 8 captures(none) dereferenceable(136) %0, ptr noundef readonly captures(none) %1) local_unnamed_addr #11 align 2 {
  %3 = getelementptr inbounds nuw i8, ptr %0, i64 16
  %4 = load ptr, ptr %3, align 8, !tbaa !218
  %5 = getelementptr inbounds nuw i8, ptr %4, i64 16
  %6 = load i32, ptr %5, align 8, !tbaa !10
  %7 = getelementptr inbounds nuw i8, ptr %1, i64 4
  %8 = load i32, ptr %7, align 4
  %9 = and i32 %8, 65535
  %10 = icmp eq i32 %9, 0
  br i1 %10, label %11, label %_ZNK16char_decl_plugin10is_char2bvEPK4expr.exit

11:                                               ; preds = %2
  %12 = getelementptr inbounds nuw i8, ptr %1, i64 16
  %13 = load ptr, ptr %12, align 8, !tbaa !186
  %14 = getelementptr inbounds nuw i8, ptr %13, i64 24
  %15 = load ptr, ptr %14, align 8, !tbaa !41
  %.not.i.i.i.i = icmp eq ptr %15, null
  br i1 %.not.i.i.i.i, label %_ZNK16char_decl_plugin10is_char2bvEPK4expr.exit, label %16

16:                                               ; preds = %11
  %17 = load i32, ptr %15, align 8, !tbaa !44
  %18 = icmp eq i32 %17, %6
  %19 = getelementptr inbounds nuw i8, ptr %15, i64 4
  %20 = load i32, ptr %19, align 4
  %21 = icmp eq i32 %20, 3
  %22 = select i1 %18, i1 %21, i1 false
  br label %_ZNK16char_decl_plugin10is_char2bvEPK4expr.exit

_ZNK16char_decl_plugin10is_char2bvEPK4expr.exit:  ; preds = %2, %11, %16
  %23 = phi i1 [ false, %2 ], [ false, %11 ], [ %22, %16 ]
  ret i1 %23
}